
h2:     file format elf32-zip


Disassembly of section .rocode:

00002000 <_start>:
    2000:	6b 00 00 00 	LDI        0x00003fff,SP	// 3fff <_top_of_stack>
    2001:	6a 40 3f ff 
    2002:	7c 87 c0 00 	LJMP       @0x00002004	// 2004 <entry>
    2003:	00 00 20 04 

00002004 <entry>:
    2004:	68 00 00 02 	SUB        $2,SP
    2005:	04 c7 40 00 	STO        R0,(SP)
    2006:	2c c7 40 01 	STO        R5,$1(SP)
    2007:	0b 00 01 00 	BREV       $256,R1
    2008:	03 c3 c0 02 	MOV        $2+PC,R0
    2009:	7c 87 c0 00 	LJMP       @0x00002074	// 2074 <zip_clear_sdram>
    200a:	00 00 20 74 
    200b:	0d 80 00 4f 	LDI        $79,R1
    200c:	0c c0 01 07 	STO        R1,($263)
    200d:	13 00 00 00 	LDI        0x00002212,R2	// 2212 <msg>
    200e:	12 40 22 12 
    200f:	1c 84 80 00 	LOD        (R2),R3
    2010:	1c 00 00 00 	CMP        $0,R3
    2011:	78 98 00 21 	BNZ        @0x00002033	// 2033 <entry+0x2f>
    2012:	03 c3 c0 02 	MOV        $2+PC,R0
    2013:	7c 87 c0 00 	LJMP       @0x000021d9	// 21d9 <test_malloc>
    2014:	00 00 21 d9 
    2015:	2b 00 40 02 	LDI        0x40024002,R5	// 40024002 <_top_of_heap+0x3f124002>
    2016:	2a 40 40 02 
    2017:	2c c0 01 06 	STO        R5,($262)
    2018:	0b 00 01 00 	BREV       $256,R1
    2019:	03 c3 c0 02 	MOV        $2+PC,R0
    201a:	7c 87 c0 00 	LJMP       @0x00002043	// 2043 <zip_read_image>
    201b:	00 00 20 43 
    201c:	28 83 bf fe 	ADD        $-16386,R5
    201d:	2c c0 01 06 	STO        R5,($262)
    201e:	2b 03 ff fe 	BREV       $-2,R5
    201f:	2c c0 01 04 	STO        R5,($260)
    2020:	0b 00 01 00 	BREV       $256,R1
    2021:	03 c3 c0 02 	MOV        $2+PC,R0
    2022:	7c 87 c0 00 	LJMP       @0x00002082	// 2082 <dwt_process>
    2023:	00 00 20 82 
    2024:	0c 80 01 04 	LOD        ($260),R1
    2025:	28 04 40 00 	SUB        R1,R5
    2026:	0b 01 e1 00 	LDI        0x0087fffe,R1	// 87fffe <_top_of_stack+0x87bfff>
    2027:	0a 40 ff fe 
    2028:	2c c4 40 00 	STO        R5,(R1)
    2029:	0b 00 01 00 	BREV       $256,R1
    202a:	03 c3 c0 02 	MOV        $2+PC,R0
    202b:	7c 87 c0 00 	LJMP       @0x00002082	// 2082 <dwt_process>
    202c:	00 00 20 82 
    202d:	0b 00 01 00 	BREV       $256,R1
    202e:	03 c3 c0 02 	MOV        $2+PC,R0
    202f:	7c 87 c0 00 	LJMP       @0x0000213e	// 213e <zip_write_image>
    2030:	00 00 21 3e 
    2031:	14 80 01 10 	LOD        ($272),R2
    2032:	78 80 00 09 	BRA        @0x0000203c	// 203c <entry+0x38>
    2033:	0c 80 01 0b 	LOD        ($267),R1
    2034:	0c 00 00 00 	CMP        $0,R1
    2035:	78 9b ff fd 	BNZ        @0x00002033	// 2033 <entry+0x2f>
    2036:	10 80 00 01 	ADD        $1,R2
    2037:	1c c0 01 0b 	STO        R3,($267)
    2038:	1c 84 80 00 	LOD        (R2),R3
    2039:	1c 00 00 00 	CMP        $0,R3
    203a:	78 9b ff f8 	BNZ        @0x00002033	// 2033 <entry+0x2f>
    203b:	78 83 ff d6 	BRA        @0x00002012	// 2012 <entry+0xe>
    203c:	0c 80 01 10 	LOD        ($272),R1
    203d:	14 04 40 00 	CMP        R1,R2
    203e:	78 93 ff fd 	BZ         @0x0000203c	// 203c <entry+0x38>
    203f:	04 87 40 00 	LOD        (SP),R0
    2040:	2c 87 40 01 	LOD        1(SP),R5
    2041:	68 80 00 02 	ADD        $2,SP
    2042:	7b c0 00 00 	JMP        R0

00002043 <zip_read_image>:
    2043:	68 00 00 05 	SUB        $5,SP
    2044:	2c c7 40 00 	STO        R5,(SP)
    2045:	34 c7 40 01 	STO        R6,$1(SP)
    2046:	3c c7 40 02 	STO        R7,$2(SP)
    2047:	44 c7 40 03 	STO        R8,$3(SP)
    2048:	4c c7 40 04 	STO        R9,$4(SP)
    2049:	25 80 00 00 	CLR        R4
    204a:	24 c0 01 04 	STO        R4,($260)
    204b:	15 81 00 01 	LDI        $65537,R2
    204c:	14 c0 01 06 	STO        R2,($262)
    204d:	2b c0 40 00 	MOV        R1,R5
    204e:	45 ff ff ff 	LDI        $-1,R8
    204f:	3b 00 c1 00 	BREV       $49408,R7
    2050:	35 81 00 00 	LDI        $65536,R6
    2051:	44 c4 40 00 	STO        R8,(R1)
    2052:	14 80 01 0a 	LOD        ($266),R2
    2053:	1b c0 80 00 	MOV        R2,R3
    2054:	18 40 01 00 	AND        $256,R3
    2055:	78 9b ff fc 	BNZ        @0x00002052	// 2052 <zip_read_image+0xf>
    2056:	11 80 00 14 	LSL        $20,R2
    2057:	1c 80 01 0a 	LOD        ($266),R3
    2058:	4b c0 c0 00 	MOV        R3,R9
    2059:	48 40 01 00 	AND        $256,R9
    205a:	78 9b ff fc 	BNZ        @0x00002057	// 2057 <zip_read_image+0x14>
    205b:	19 80 00 0a 	LSL        $10,R3
    205c:	10 c4 c0 00 	OR         R3,R2
    205d:	1c 80 01 0a 	LOD        ($266),R3
    205e:	4b c0 c0 00 	MOV        R3,R9
    205f:	48 40 01 00 	AND        $256,R9
    2060:	78 9b ff fc 	BNZ        @0x0000205d	// 205d <zip_read_image+0x1a>
    2061:	10 c4 c0 00 	OR         R3,R2
    2062:	14 c5 40 00 	STO        R2,(R5)
    2063:	24 c5 c0 00 	STO        R4,(R7)
    2064:	34 c0 01 06 	STO        R6,($262)
    2065:	14 80 01 02 	LOD        ($258),R2
    2066:	10 40 01 00 	AND        $256,R2
    2067:	78 98 00 05 	BNZ        @0x0000206d	// 206d <zip_read_image+0x2a>
    2068:	20 80 00 01 	ADD        $1,R4
    2069:	28 80 00 01 	ADD        $1,R5
    206a:	08 80 00 02 	ADD        $2,R1
    206b:	24 01 00 00 	CMP        $65536,R4
    206c:	78 9b ff e4 	BNZ        @0x00002051	// 2051 <zip_read_image+0xe>
    206d:	2c 87 40 00 	LOD        (SP),R5
    206e:	34 87 40 01 	LOD        1(SP),R6
    206f:	3c 87 40 02 	LOD        2(SP),R7
    2070:	44 87 40 03 	LOD        3(SP),R8
    2071:	4c 87 40 04 	LOD        4(SP),R9
    2072:	68 80 00 05 	ADD        $5,SP
    2073:	7b c0 00 00 	JMP        R0

00002074 <zip_clear_sdram>:
    2074:	15 83 00 00 	LDI        $196608,R2
    2075:	1b c0 40 00 	MOV        R1,R3
    2076:	18 84 80 00 	ADD        R2,R3
    2077:	15 80 00 00 	CLR        R2
    2078:	08 80 00 01 	ADD        $1,R1
    2079:	14 c4 7f ff 	STO        R2,$-1(R1)
    207a:	0c 04 c0 00 	CMP        R3,R1
    207b:	78 9b ff fc 	BNZ        @0x00002078	// 2078 <zip_clear_sdram+0x4>
    207c:	7b c0 00 00 	JMP        R0

0000207d <twos_comp>:
    207d:	0c 00 01 01 	CMP        $257,R1
    207e:	78 88 00 02 	BLT        @0x00002081	// 2081 <twos_comp+0x4>
    207f:	08 83 fe 00 	ADD        $-512,R1
    2080:	7b c0 00 00 	JMP        R0
    2081:	7b c0 00 00 	JMP        R0

00002082 <dwt_process>:
    2082:	68 00 00 0d 	SUB        $13,SP
    2083:	2c c7 40 05 	STO        R5,$5(SP)
    2084:	34 c7 40 06 	STO        R6,$6(SP)
    2085:	3c c7 40 07 	STO        R7,$7(SP)
    2086:	44 c7 40 08 	STO        R8,$8(SP)
    2087:	4c c7 40 09 	STO        R9,$9(SP)
    2088:	54 c7 40 0a 	STO        R10,$10(SP)
    2089:	5c c7 40 0b 	STO        R11,$11(SP)
    208a:	64 c7 40 0c 	STO        R12,$12(SP)
    208b:	0c c7 40 03 	STO        R1,$3(SP)
    208c:	08 80 00 01 	ADD        $1,R1
    208d:	0c c7 40 04 	STO        R1,$4(SP)
    208e:	0c 87 40 03 	LOD        3(SP),R1
    208f:	43 c0 40 02 	MOV        $2+R1,R8
    2090:	08 80 00 03 	ADD        $3,R1
    2091:	0c c7 40 01 	STO        R1,$1(SP)
    2092:	0c 87 40 03 	LOD        3(SP),R1
    2093:	08 81 00 01 	ADD        $65537,R1
    2094:	0c c7 40 00 	STO        R1,(SP)
    2095:	0c 87 40 01 	LOD        1(SP),R1
    2096:	53 c2 00 00 	MOV        R8,R10
    2097:	4b c0 40 00 	MOV        R1,R9
    2098:	64 87 40 04 	LOD        4(SP),R12
    2099:	5d 87 fc 00 	LDI        $523264,R11
    209a:	44 c7 40 02 	STO        R8,$2(SP)
    209b:	43 c0 40 00 	MOV        R1,R8
    209c:	1c 87 00 00 	LOD        (R12),R3
    209d:	0b c0 c0 00 	MOV        R3,R1
    209e:	09 c0 00 14 	ASR        $20,R1
    209f:	14 86 80 00 	LOD        (R10),R2
    20a0:	23 c0 80 00 	MOV        R2,R4
    20a1:	21 c0 00 14 	ASR        $20,R4
    20a2:	34 86 40 00 	LOD        (R9),R6
    20a3:	2b c1 80 00 	MOV        R6,R5
    20a4:	29 c0 00 14 	ASR        $20,R5
    20a5:	0c 00 01 01 	CMP        $257,R1
    20a6:	08 ab fe 00 	ADD.GE     $-512,R1
    20a7:	24 00 01 01 	CMP        $257,R4
    20a8:	20 ab fe 00 	ADD.GE     $-512,R4
    20a9:	2c 00 01 01 	CMP        $257,R5
    20aa:	28 ab fe 00 	ADD.GE     $-512,R5
    20ab:	08 85 40 00 	ADD        R5,R1
    20ac:	09 c0 00 01 	ASR        $1,R1
    20ad:	20 04 40 00 	SUB        R1,R4
    20ae:	20 40 01 ff 	AND        $511,R4
    20af:	21 80 00 14 	LSL        $20,R4
    20b0:	2b c0 c0 00 	MOV        R3,R5
    20b1:	28 46 c0 00 	AND        R11,R5
    20b2:	29 c0 00 0a 	ASR        $10,R5
    20b3:	0b c0 80 00 	MOV        R2,R1
    20b4:	08 46 c0 00 	AND        R11,R1
    20b5:	09 c0 00 0a 	ASR        $10,R1
    20b6:	3b c1 80 00 	MOV        R6,R7
    20b7:	38 46 c0 00 	AND        R11,R7
    20b8:	39 c0 00 0a 	ASR        $10,R7
    20b9:	2c 00 01 01 	CMP        $257,R5
    20ba:	28 ab fe 00 	ADD.GE     $-512,R5
    20bb:	0c 00 01 01 	CMP        $257,R1
    20bc:	08 ab fe 00 	ADD.GE     $-512,R1
    20bd:	3c 00 01 01 	CMP        $257,R7
    20be:	38 ab fe 00 	ADD.GE     $-512,R7
    20bf:	28 85 c0 00 	ADD        R7,R5
    20c0:	29 c0 00 01 	ASR        $1,R5
    20c1:	08 05 40 00 	SUB        R5,R1
    20c2:	08 40 01 ff 	AND        $511,R1
    20c3:	09 80 00 0a 	LSL        $10,R1
    20c4:	20 c4 40 00 	OR         R1,R4
    20c5:	18 40 01 ff 	AND        $511,R3
    20c6:	10 40 01 ff 	AND        $511,R2
    20c7:	30 40 01 ff 	AND        $511,R6
    20c8:	1c 00 01 01 	CMP        $257,R3
    20c9:	18 ab fe 00 	ADD.GE     $-512,R3
    20ca:	14 00 01 01 	CMP        $257,R2
    20cb:	10 ab fe 00 	ADD.GE     $-512,R2
    20cc:	34 00 01 01 	CMP        $257,R6
    20cd:	30 ab fe 00 	ADD.GE     $-512,R6
    20ce:	18 85 80 00 	ADD        R6,R3
    20cf:	19 c0 00 01 	ASR        $1,R3
    20d0:	10 04 c0 00 	SUB        R3,R2
    20d1:	10 40 01 ff 	AND        $511,R2
    20d2:	20 c4 80 00 	OR         R2,R4
    20d3:	24 c6 80 00 	STO        R4,(R10)
    20d4:	50 80 00 02 	ADD        $2,R10
    20d5:	48 80 00 02 	ADD        $2,R9
    20d6:	0c 87 40 00 	LOD        (SP),R1
    20d7:	4c 04 40 00 	CMP        R1,R9
    20d8:	78 98 00 0a 	BNZ        @0x000020e3	// 20e3 <dwt_process+0x61>
    20d9:	44 87 40 02 	LOD        2(SP),R8
    20da:	64 87 40 03 	LOD        3(SP),R12
    20db:	60 81 00 00 	ADD        $65536,R12
    20dc:	55 80 00 ff 	LDI        $255,R10
    20dd:	4d 87 fc 00 	LDI        $523264,R9
    20de:	64 c7 40 02 	STO        R12,$2(SP)
    20df:	44 c7 40 00 	STO        R8,(SP)
    20e0:	5c 87 40 04 	LOD        4(SP),R11
    20e1:	64 87 40 03 	LOD        3(SP),R12
    20e2:	78 80 00 04 	BRA        @0x000020e7	// 20e7 <dwt_process+0x65>
    20e3:	0b c3 00 04 	MOV        $4+R12,R1
    20e4:	63 c2 00 00 	MOV        R8,R12
    20e5:	43 c0 40 00 	MOV        R1,R8
    20e6:	78 83 ff b5 	BRA        @0x0000209c	// 209c <dwt_process+0x1a>
    20e7:	2c 87 00 00 	LOD        (R12),R5
    20e8:	1b c1 40 00 	MOV        R5,R3
    20e9:	19 c0 00 14 	ASR        $20,R3
    20ea:	24 86 c0 00 	LOD        (R11),R4
    20eb:	33 c1 00 00 	MOV        R4,R6
    20ec:	31 c0 00 14 	ASR        $20,R6
    20ed:	14 86 00 00 	LOD        (R8),R2
    20ee:	0b c0 80 00 	MOV        R2,R1
    20ef:	09 c0 00 14 	ASR        $20,R1
    20f0:	1c 00 01 01 	CMP        $257,R3
    20f1:	18 ab fe 00 	ADD.GE     $-512,R3
    20f2:	34 00 01 01 	CMP        $257,R6
    20f3:	30 ab fe 00 	ADD.GE     $-512,R6
    20f4:	0c 00 01 01 	CMP        $257,R1
    20f5:	08 ab fe 00 	ADD.GE     $-512,R1
    20f6:	08 84 c0 00 	ADD        R3,R1
    20f7:	08 80 00 02 	ADD        $2,R1
    20f8:	09 c0 00 02 	ASR        $2,R1
    20f9:	1b c0 40 00 	MOV        R1,R3
    20fa:	18 85 80 00 	ADD        R6,R3
    20fb:	1c 06 80 00 	CMP        R10,R3
    20fc:	1b e2 80 00 	MOV.GT     R10,R3
    20fd:	18 40 01 ff 	AND        $511,R3
    20fe:	19 80 00 14 	LSL        $20,R3
    20ff:	3b c1 40 00 	MOV        R5,R7
    2100:	38 46 40 00 	AND        R9,R7
    2101:	39 c0 00 0a 	ASR        $10,R7
    2102:	33 c1 00 00 	MOV        R4,R6
    2103:	30 46 40 00 	AND        R9,R6
    2104:	31 c0 00 0a 	ASR        $10,R6
    2105:	0b c0 80 00 	MOV        R2,R1
    2106:	08 46 40 00 	AND        R9,R1
    2107:	09 c0 00 0a 	ASR        $10,R1
    2108:	3c 00 01 01 	CMP        $257,R7
    2109:	38 ab fe 00 	ADD.GE     $-512,R7
    210a:	34 00 01 01 	CMP        $257,R6
    210b:	30 ab fe 00 	ADD.GE     $-512,R6
    210c:	0c 00 01 01 	CMP        $257,R1
    210d:	08 ab fe 00 	ADD.GE     $-512,R1
    210e:	08 85 c0 00 	ADD        R7,R1
    210f:	08 80 00 02 	ADD        $2,R1
    2110:	09 c0 00 02 	ASR        $2,R1
    2111:	08 85 80 00 	ADD        R6,R1
    2112:	0c 06 80 00 	CMP        R10,R1
    2113:	0b e2 80 00 	MOV.GT     R10,R1
    2114:	08 40 01 ff 	AND        $511,R1
    2115:	09 80 00 0a 	LSL        $10,R1
    2116:	18 c4 40 00 	OR         R1,R3
    2117:	28 40 01 ff 	AND        $511,R5
    2118:	20 40 01 ff 	AND        $511,R4
    2119:	10 40 01 ff 	AND        $511,R2
    211a:	2c 00 01 01 	CMP        $257,R5
    211b:	28 ab fe 00 	ADD.GE     $-512,R5
    211c:	24 00 01 01 	CMP        $257,R4
    211d:	20 ab fe 00 	ADD.GE     $-512,R4
    211e:	14 00 01 01 	CMP        $257,R2
    211f:	10 ab fe 00 	ADD.GE     $-512,R2
    2120:	10 85 40 00 	ADD        R5,R2
    2121:	0b c0 80 02 	MOV        $2+R2,R1
    2122:	09 c0 00 02 	ASR        $2,R1
    2123:	08 85 00 00 	ADD        R4,R1
    2124:	0c 06 80 00 	CMP        R10,R1
    2125:	0b e2 80 00 	MOV.GT     R10,R1
    2126:	08 40 01 ff 	AND        $511,R1
    2127:	18 c4 40 00 	OR         R1,R3
    2128:	1c c6 c0 00 	STO        R3,(R11)
    2129:	40 80 00 02 	ADD        $2,R8
    212a:	0c 87 40 02 	LOD        2(SP),R1
    212b:	44 04 40 00 	CMP        R1,R8
    212c:	78 90 00 07 	BZ         @0x00002134	// 2134 <dwt_process+0xb2>
    212d:	13 c3 00 04 	MOV        $4+R12,R2
    212e:	0b c2 c0 04 	MOV        $4+R11,R1
    212f:	64 87 40 00 	LOD        (SP),R12
    2130:	5c 87 40 01 	LOD        1(SP),R11
    2131:	14 c7 40 00 	STO        R2,(SP)
    2132:	0c c7 40 01 	STO        R1,$1(SP)
    2133:	78 83 ff b3 	BRA        @0x000020e7	// 20e7 <dwt_process+0x65>
    2134:	2c 87 40 05 	LOD        5(SP),R5
    2135:	34 87 40 06 	LOD        6(SP),R6
    2136:	3c 87 40 07 	LOD        7(SP),R7
    2137:	44 87 40 08 	LOD        8(SP),R8
    2138:	4c 87 40 09 	LOD        9(SP),R9
    2139:	54 87 40 0a 	LOD        10(SP),R10
    213a:	5c 87 40 0b 	LOD        11(SP),R11
    213b:	64 87 40 0c 	LOD        12(SP),R12
    213c:	68 80 00 0d 	ADD        $13,SP
    213d:	7b c0 00 00 	JMP        R0

0000213e <zip_write_image>:
    213e:	68 00 00 02 	SUB        $2,SP
    213f:	2c c7 40 00 	STO        R5,(SP)
    2140:	34 c7 40 01 	STO        R6,$1(SP)
    2141:	15 80 00 00 	CLR        R2
    2142:	14 c0 01 04 	STO        R2,($260)
    2143:	15 81 00 01 	LDI        $65537,R2
    2144:	14 c0 01 06 	STO        R2,($262)
    2145:	33 c0 40 00 	MOV        R1,R6
    2146:	30 81 00 00 	ADD        $65536,R6
    2147:	2b 00 0f f8 	BREV       $4088,R5
    2148:	25 87 fc 00 	LDI        $523264,R4
    2149:	14 80 01 0b 	LOD        ($267),R2
    214a:	14 00 00 00 	CMP        $0,R2
    214b:	78 9b ff fd 	BNZ        @0x00002149	// 2149 <zip_write_image+0xb>
    214c:	1c 84 40 00 	LOD        (R1),R3
    214d:	18 45 40 00 	AND        R5,R3
    214e:	19 c0 00 14 	ASR        $20,R3
    214f:	14 80 01 0b 	LOD        ($267),R2
    2150:	14 00 00 00 	CMP        $0,R2
    2151:	78 9b ff fd 	BNZ        @0x0000214f	// 214f <zip_write_image+0x11>
    2152:	1c c0 01 0b 	STO        R3,($267)
    2153:	1c 84 40 00 	LOD        (R1),R3
    2154:	18 45 00 00 	AND        R4,R3
    2155:	19 c0 00 0a 	ASR        $10,R3
    2156:	14 80 01 0b 	LOD        ($267),R2
    2157:	14 00 00 00 	CMP        $0,R2
    2158:	78 9b ff fd 	BNZ        @0x00002156	// 2156 <zip_write_image+0x18>
    2159:	1c c0 01 0b 	STO        R3,($267)
    215a:	1c 84 40 00 	LOD        (R1),R3
    215b:	18 40 01 ff 	AND        $511,R3
    215c:	14 80 01 0b 	LOD        ($267),R2
    215d:	14 00 00 00 	CMP        $0,R2
    215e:	78 9b ff fd 	BNZ        @0x0000215c	// 215c <zip_write_image+0x1e>
    215f:	1c c0 01 0b 	STO        R3,($267)
    2160:	14 80 01 0b 	LOD        ($267),R2
    2161:	14 00 00 00 	CMP        $0,R2
    2162:	78 9b ff fd 	BNZ        @0x00002160	// 2160 <zip_write_image+0x22>
    2163:	08 80 00 01 	ADD        $1,R1
    2164:	0c 05 80 00 	CMP        R6,R1
    2165:	78 9b ff e3 	BNZ        @0x00002149	// 2149 <zip_write_image+0xb>
    2166:	2c 87 40 00 	LOD        (SP),R5
    2167:	34 87 40 01 	LOD        1(SP),R6
    2168:	68 80 00 02 	ADD        $2,SP
    2169:	7b c0 00 00 	JMP        R0

0000216a <pp>:
    216a:	68 00 00 05 	SUB        $5,SP
    216b:	2c c7 40 00 	STO        R5,(SP)
    216c:	34 c7 40 01 	STO        R6,$1(SP)
    216d:	3c c7 40 02 	STO        R7,$2(SP)
    216e:	44 c7 40 03 	STO        R8,$3(SP)
    216f:	4c c7 40 04 	STO        R9,$4(SP)
    2170:	2b c0 40 00 	MOV        R1,R5
    2171:	33 c0 80 00 	MOV        R2,R6
    2172:	1b c0 80 00 	MOV        R2,R3
    2173:	0b 00 41 00 	BREV       $16640,R1
    2174:	23 00 c1 00 	BREV       $49408,R4
    2175:	0c c4 c0 00 	STO        R1,(R3)
    2176:	08 80 01 00 	ADD        $256,R1
    2177:	18 80 00 01 	ADD        $1,R3
    2178:	0c 05 00 00 	CMP        R4,R1
    2179:	78 9b ff fb 	BNZ        @0x00002175	// 2175 <pp+0xb>
    217a:	78 80 00 0a 	BRA        @0x00002185	// 2185 <pp+0x1b>
    217b:	0c c4 c0 00 	STO        R1,(R3)
    217c:	18 80 00 01 	ADD        $1,R3
    217d:	1c 05 00 00 	CMP        R4,R3
    217e:	78 9b ff fc 	BNZ        @0x0000217b	// 217b <pp+0x11>
    217f:	30 80 00 01 	ADD        $1,R6
    2180:	3c 05 80 00 	CMP        R6,R7
    2181:	78 98 00 05 	BNZ        @0x00002187	// 2187 <pp+0x1d>
    2182:	3b c1 41 00 	MOV        $256+R5,R7
    2183:	35 80 00 00 	CLR        R6
    2184:	78 80 00 13 	BRA        @0x00002198	// 2198 <pp+0x2e>
    2185:	3b c0 81 00 	MOV        $256+R2,R7
    2186:	0d 80 00 00 	CLR        R1
    2187:	1c 85 80 00 	LOD        (R6),R3
    2188:	23 c0 c1 00 	MOV        $256+R3,R4
    2189:	78 83 ff f1 	BRA        @0x0000217b	// 217b <pp+0x11>
    218a:	0b c2 00 00 	MOV        R8,R1
    218b:	08 85 00 00 	ADD        R4,R1
    218c:	4c 84 c0 00 	LOD        (R3),R9
    218d:	4c c4 40 00 	STO        R9,(R1)
    218e:	18 80 00 01 	ADD        $1,R3
    218f:	20 80 00 01 	ADD        $1,R4
    2190:	24 00 01 00 	CMP        $256,R4
    2191:	78 9b ff f8 	BNZ        @0x0000218a	// 218a <pp+0x20>
    2192:	0c 85 c1 00 	LOD        256(R7),R1
    2193:	0c c5 c0 00 	STO        R1,(R7)
    2194:	30 80 00 01 	ADD        $1,R6
    2195:	38 80 01 00 	ADD        $256,R7
    2196:	34 00 01 00 	CMP        $256,R6
    2197:	78 90 00 17 	BZ         @0x000021af	// 21af <pp+0x45>
    2198:	1b c1 df 00 	MOV        $-256+R7,R3
    2199:	0b c1 80 00 	MOV        R6,R1
    219a:	09 c0 00 01 	ASR        $1,R1
    219b:	23 c1 80 00 	MOV        R6,R4
    219c:	20 40 00 01 	AND        $1,R4
    219d:	78 98 00 04 	BNZ        @0x000021a2	// 21a2 <pp+0x38>
    219e:	43 c0 80 00 	MOV        R2,R8
    219f:	40 84 40 00 	ADD        R1,R8
    21a0:	44 86 00 00 	LOD        (R8),R8
    21a1:	78 83 ff e8 	BRA        @0x0000218a	// 218a <pp+0x20>
    21a2:	4b c0 80 00 	MOV        R2,R9
    21a3:	48 84 40 00 	ADD        R1,R9
    21a4:	44 86 40 80 	LOD        128(R9),R8
    21a5:	25 80 00 00 	CLR        R4
    21a6:	0b c2 00 00 	MOV        R8,R1
    21a7:	08 85 00 00 	ADD        R4,R1
    21a8:	4c 84 c0 00 	LOD        (R3),R9
    21a9:	4c c4 40 00 	STO        R9,(R1)
    21aa:	18 80 00 01 	ADD        $1,R3
    21ab:	20 80 00 01 	ADD        $1,R4
    21ac:	24 00 01 00 	CMP        $256,R4
    21ad:	78 9b ff f8 	BNZ        @0x000021a6	// 21a6 <pp+0x3c>
    21ae:	78 83 ff e3 	BRA        @0x00002192	// 2192 <pp+0x28>
    21af:	13 c1 40 00 	MOV        R5,R2
    21b0:	0b 00 01 00 	BREV       $256,R1
    21b1:	1b 00 81 00 	BREV       $33024,R3
    21b2:	0c c4 80 00 	STO        R1,(R2)
    21b3:	08 80 01 00 	ADD        $256,R1
    21b4:	10 80 00 01 	ADD        $1,R2
    21b5:	0c 04 c0 00 	CMP        R3,R1
    21b6:	78 9b ff fb 	BNZ        @0x000021b2	// 21b2 <pp+0x48>
    21b7:	0b 00 41 00 	BREV       $16640,R1
    21b8:	33 00 c1 00 	BREV       $49408,R6
    21b9:	78 80 00 0c 	BRA        @0x000021c6	// 21c6 <pp+0x5c>
    21ba:	1c 84 40 00 	LOD        (R1),R3
    21bb:	1c c4 80 00 	STO        R3,(R2)
    21bc:	08 80 00 01 	ADD        $1,R1
    21bd:	10 80 00 01 	ADD        $1,R2
    21be:	24 04 40 00 	CMP        R1,R4
    21bf:	78 9b ff fa 	BNZ        @0x000021ba	// 21ba <pp+0x50>
    21c0:	0c 85 01 00 	LOD        256(R4),R1
    21c1:	0c c5 00 00 	STO        R1,(R4)
    21c2:	28 80 00 01 	ADD        $1,R5
    21c3:	0b c1 00 00 	MOV        R4,R1
    21c4:	24 05 80 00 	CMP        R6,R4
    21c5:	78 90 00 03 	BZ         @0x000021c9	// 21c9 <pp+0x5f>
    21c6:	14 85 40 00 	LOD        (R5),R2
    21c7:	23 c0 41 00 	MOV        $256+R1,R4
    21c8:	78 83 ff f1 	BRA        @0x000021ba	// 21ba <pp+0x50>
    21c9:	2c 87 40 00 	LOD        (SP),R5
    21ca:	34 87 40 01 	LOD        1(SP),R6
    21cb:	3c 87 40 02 	LOD        2(SP),R7
    21cc:	44 87 40 03 	LOD        3(SP),R8
    21cd:	4c 87 40 04 	LOD        4(SP),R9
    21ce:	68 80 00 05 	ADD        $5,SP
    21cf:	7b c0 00 00 	JMP        R0

000021d0 <free>:
    21d0:	7b c0 00 00 	JMP        R0

000021d1 <malloc>:
    21d1:	1b 00 00 00 	LDI        0x00002226,R3	// 2226 <heap>
    21d2:	1a 40 22 26 
    21d3:	14 84 c0 00 	LOD        (R3),R2
    21d4:	23 c0 80 00 	MOV        R2,R4
    21d5:	20 84 40 00 	ADD        R1,R4
    21d6:	24 c4 c0 00 	STO        R4,(R3)
    21d7:	0b c0 80 00 	MOV        R2,R1
    21d8:	7b c0 00 00 	JMP        R0

000021d9 <test_malloc>:
    21d9:	68 00 00 07 	SUB        $7,SP
    21da:	04 c7 40 04 	STO        R0,$4(SP)
    21db:	2c c7 40 05 	STO        R5,$5(SP)
    21dc:	34 c7 40 06 	STO        R6,$6(SP)
    21dd:	0d 80 00 10 	LDI        $16,R1
    21de:	03 c3 c0 02 	MOV        $2+PC,R0
    21df:	7c 87 c0 00 	LJMP       @0x000021d1	// 21d1 <malloc>
    21e0:	00 00 21 d1 
    21e1:	33 c0 40 00 	MOV        R1,R6
    21e2:	0d 80 00 10 	LDI        $16,R1
    21e3:	03 c3 c0 02 	MOV        $2+PC,R0
    21e4:	7c 87 c0 00 	LJMP       @0x000021d1	// 21d1 <malloc>
    21e5:	00 00 21 d1 
    21e6:	2b c0 40 00 	MOV        R1,R5
    21e7:	15 80 00 10 	LDI        $16,R2
    21e8:	0b 01 e1 00 	LDI        0x0087fff9,R1	// 87fff9 <_top_of_stack+0x87bffa>
    21e9:	0a 40 ff f9 
    21ea:	14 c4 40 00 	STO        R2,(R1)
    21eb:	0b 01 e1 00 	LDI        0x0087fff8,R1	// 87fff8 <_top_of_stack+0x87bff9>
    21ec:	0a 40 ff f8 
    21ed:	03 c3 40 00 	MOV        SP,R0
    21ee:	04 c4 40 00 	STO        R0,(R1)
    21ef:	0b 01 e1 00 	LDI        0x0087fffa,R1	// 87fffa <_top_of_stack+0x87bffb>
    21f0:	0a 40 ff fa 
    21f1:	34 c4 40 00 	STO        R6,(R1)
    21f2:	0b 01 e1 00 	LDI        0x0087fffb,R1	// 87fffb <_top_of_stack+0x87bffc>
    21f3:	0a 40 ff fb 
    21f4:	2c c4 40 00 	STO        R5,(R1)
    21f5:	0b c1 80 00 	MOV        R6,R1
    21f6:	03 c3 c0 02 	MOV        $2+PC,R0
    21f7:	7c 87 c0 00 	LJMP       @0x000021d0	// 21d0 <free>
    21f8:	00 00 21 d0 
    21f9:	0b c1 40 00 	MOV        R5,R1
    21fa:	03 c3 c0 02 	MOV        $2+PC,R0
    21fb:	7c 87 c0 00 	LJMP       @0x000021d0	// 21d0 <free>
    21fc:	00 00 21 d0 
    21fd:	04 87 40 04 	LOD        4(SP),R0
    21fe:	2c 87 40 05 	LOD        5(SP),R5
    21ff:	34 87 40 06 	LOD        6(SP),R6
    2200:	68 80 00 07 	ADD        $7,SP
    2201:	7b c0 00 00 	JMP        R0

00002202 <msg1>:
    2202:	00 00 00 44 00 00 00 61 00 00 00 74 00 00 00 61     ...D...a...t...a
    2206:	00 00 00 20 00 00 00 72 00 00 00 64 00 00 00 79     ... ...r...d...y
    220a:	00 00 00 20 00 00 00 20 00 00 00 20 00 00 00 20     ... ... ... ... 
    220e:	00 00 00 20 00 00 00 0d 00 00 00 0a 00 00 00 00     ... ............

00002212 <msg>:
    2212:	00 00 00 48 00 00 00 65 00 00 00 6c 00 00 00 6c     ...H...e...l...l
    2216:	00 00 00 6f 00 00 00 2c 00 00 00 20 00 00 00 77     ...o...,... ...w
    221a:	00 00 00 6f 00 00 00 72 00 00 00 6c 00 00 00 64     ...o...r...l...d
    221e:	00 00 00 21 00 00 00 0d 00 00 00 0a 00 00 00 00     ...!............

00002222 <XULA_BUSY>:
    2222:	40 00 00 00                                         @...

00002223 <READY_FOR_XMIT>:
    2223:	40 00 40 00                                         @.@.

00002224 <LED_OFF>:
    2224:	00 02 00 00                                         ....

00002225 <LED_ON>:
    2225:	00 02 00 02                                         ....
