
h2:     file format elf32-zip


Disassembly of section .rocode:

00002000 <_start>:
    2000:	6b 00 00 00 	LDI        0x00003fff,SP	// 3fff <_top_of_stack>
    2001:	6a 40 3f ff 
    2002:	7c 87 c0 00 	LJMP       @0x00002004	// 2004 <entry>
    2003:	00 00 20 04 

00002004 <entry>:
    2004:	68 00 00 01 	SUB        $1,SP
    2005:	04 c7 40 00 	STO        R0,(SP)
    2006:	0b 00 01 00 	BREV       $256,R1
    2007:	03 c3 c0 02 	MOV        0x0000200a,R0	// 200a <entry+0x6>
    2008:	7c 87 c0 00 	LJMP       @0x0000204e	// 204e <zip_clear_sdram>
    2009:	00 00 20 4e 
    200a:	0d 80 00 4f 	LDI        $79,R1
    200b:	0c c0 01 07 	STO        R1,($263)
    200c:	13 00 00 00 	LDI        0x0000237b,R2	// 237b <msg>
    200d:	12 40 23 7b 
    200e:	1c 84 80 00 	LOD        (R2),R3
    200f:	1c 00 00 00 	CMP        $0,R3
    2010:	78 98 00 05 	BNZ        @0x00002016	// 2016 <entry+0x12>
    2011:	03 c3 c0 02 	MOV        0x00002014,R0	// 2014 <entry+0x10>
    2012:	7c 87 c0 00 	LJMP       @0x0000221e	// 221e <rd_dwt_wr>
    2013:	00 00 22 1e 
    2014:	14 80 01 10 	LOD        ($272),R2
    2015:	78 80 00 09 	BRA        @0x0000201f	// 201f <entry+0x1b>
    2016:	0c 80 01 0b 	LOD        ($267),R1
    2017:	0c 00 00 00 	CMP        $0,R1
    2018:	78 9b ff fd 	BNZ        @0x00002016	// 2016 <entry+0x12>
    2019:	10 80 00 01 	ADD        $1,R2
    201a:	1c c0 01 0b 	STO        R3,($267)
    201b:	1c 84 80 00 	LOD        (R2),R3
    201c:	1c 00 00 00 	CMP        $0,R3
    201d:	78 9b ff f8 	BNZ        @0x00002016	// 2016 <entry+0x12>
    201e:	78 83 ff f2 	BRA        @0x00002011	// 2011 <entry+0xd>
    201f:	0c 80 01 10 	LOD        ($272),R1
    2020:	14 04 40 00 	CMP        R1,R2
    2021:	78 93 ff fd 	BZ         @0x0000201f	// 201f <entry+0x1b>
    2022:	04 87 40 00 	LOD        (SP),R0
    2023:	68 80 00 01 	ADD        $1,SP
    2024:	7b c0 00 00 	RTN        

00002025 <zip_read_image>:
    2025:	68 00 00 03 	SUB        $3,SP
    2026:	2c c7 40 00 	STO        R5,(SP)
    2027:	34 c7 40 01 	STO        R6,$1(SP)
    2028:	3c c7 40 02 	STO        R7,$2(SP)
    2029:	2b c0 40 00 	MOV        R1,R5
    202a:	0d 80 00 00 	CLR        R1
    202b:	0c c0 01 04 	STO        R1,($260)
    202c:	0d 81 00 01 	LDI        $65537,R1
    202d:	0c c0 01 06 	STO        R1,($262)
    202e:	3b c0 c0 00 	MOV        R3,R7
    202f:	38 81 00 00 	ADD        $65536,R7
    2030:	35 81 00 00 	LDI        $65536,R6
    2031:	24 80 01 0a 	LOD        ($266),R4
    2032:	0b c1 00 00 	MOV        R4,R1
    2033:	08 40 01 00 	AND        $256,R1
    2034:	78 9b ff fc 	BNZ        @0x00002031	// 2031 <zip_read_image+0xc>
    2035:	24 c5 40 00 	STO        R4,(R5)
    2036:	28 80 00 01 	ADD        $1,R5
    2037:	24 80 01 0a 	LOD        ($266),R4
    2038:	0b c1 00 00 	MOV        R4,R1
    2039:	08 40 01 00 	AND        $256,R1
    203a:	78 9b ff fc 	BNZ        @0x00002037	// 2037 <zip_read_image+0x12>
    203b:	24 c4 80 00 	STO        R4,(R2)
    203c:	10 80 00 01 	ADD        $1,R2
    203d:	24 80 01 0a 	LOD        ($266),R4
    203e:	0b c1 00 00 	MOV        R4,R1
    203f:	08 40 01 00 	AND        $256,R1
    2040:	78 9b ff fc 	BNZ        @0x0000203d	// 203d <zip_read_image+0x18>
    2041:	24 c4 c0 00 	STO        R4,(R3)
    2042:	18 80 00 01 	ADD        $1,R3
    2043:	34 c0 01 06 	STO        R6,($262)
    2044:	24 80 01 02 	LOD        ($258),R4
    2045:	20 40 01 00 	AND        $256,R4
    2046:	78 98 00 02 	BNZ        @0x00002049	// 2049 <zip_read_image+0x24>
    2047:	1c 05 c0 00 	CMP        R7,R3
    2048:	78 9b ff e8 	BNZ        @0x00002031	// 2031 <zip_read_image+0xc>
    2049:	2c 87 40 00 	LOD        (SP),R5
    204a:	34 87 40 01 	LOD        1(SP),R6
    204b:	3c 87 40 02 	LOD        2(SP),R7
    204c:	68 80 00 03 	ADD        $3,SP
    204d:	7b c0 00 00 	RTN        

0000204e <zip_clear_sdram>:
    204e:	15 8c 00 00 	LDI        $786432,R2
    204f:	1b c0 40 00 	MOV        R1,R3
    2050:	18 84 80 00 	ADD        R2,R3
    2051:	15 80 00 00 	CLR        R2
    2052:	08 80 00 01 	ADD        $1,R1
    2053:	14 c4 7f ff 	STO        R2,$-1(R1)
    2054:	0c 04 c0 00 	CMP        R3,R1
    2055:	78 9b ff fc 	BNZ        @0x00002052	// 2052 <zip_clear_sdram+0x4>
    2056:	7b c0 00 00 	RTN        

00002057 <free>:
    2057:	7b c0 00 00 	RTN        

00002058 <malloc>:
    2058:	1b 00 00 00 	LDI        0x0000238b,R3	// 238b <heap>
    2059:	1a 40 23 8b 
    205a:	14 84 c0 00 	LOD        (R3),R2
    205b:	23 c0 80 00 	MOV        R2,R4
    205c:	20 84 40 00 	ADD        R1,R4
    205d:	24 c4 c0 00 	STO        R4,(R3)
    205e:	0b c0 80 00 	MOV        R2,R1
    205f:	7b c0 00 00 	RTN        

00002060 <singlelift>:
    2060:	14 00 00 01 	CMP        $1,R2
    2061:	78 88 00 6e 	BLT        @0x000020d0	// 20d0 <singlelift+0x70>
    2062:	68 00 00 0d 	SUB        $13,SP
    2063:	2c c7 40 05 	STO        R5,$5(SP)
    2064:	34 c7 40 06 	STO        R6,$6(SP)
    2065:	3c c7 40 07 	STO        R7,$7(SP)
    2066:	44 c7 40 08 	STO        R8,$8(SP)
    2067:	4c c7 40 09 	STO        R9,$9(SP)
    2068:	54 c7 40 0a 	STO        R10,$10(SP)
    2069:	5c c7 40 0b 	STO        R11,$11(SP)
    206a:	64 c7 40 0c 	STO        R12,$12(SP)
    206b:	33 c0 80 00 	MOV        R2,R6
    206c:	32 04 40 00 	MPY        R1,R6
    206d:	2b c1 80 00 	MOV        R6,R5
    206e:	29 40 00 1f 	LSR        $31,R5
    206f:	28 85 80 00 	ADD        R6,R5
    2070:	29 c0 00 01 	ASR        $1,R5
    2071:	2c c7 40 01 	STO        R5,$1(SP)
    2072:	2b c0 80 00 	MOV        R2,R5
    2073:	29 c0 00 01 	ASR        $1,R5
    2074:	2c c7 40 02 	STO        R5,$2(SP)
    2075:	63 c1 00 00 	MOV        R4,R12
    2076:	23 c1 5f fe 	MOV        $-2+R5,R4
    2077:	22 04 40 00 	MPY        R1,R4
    2078:	2b c3 00 00 	MOV        R12,R5
    2079:	28 85 00 00 	ADD        R4,R5
    207a:	2c c7 40 00 	STO        R5,(SP)
    207b:	5b c0 c0 04 	MOV        $4+R3,R11
    207c:	1b c3 00 00 	MOV        R12,R3
    207d:	18 84 80 00 	ADD        R2,R3
    207e:	1c c7 40 03 	STO        R3,$3(SP)
    207f:	14 87 40 02 	LOD        2(SP),R2
    2080:	10 84 80 00 	ADD        R2,R2
    2081:	10 83 ff fc 	ADD        $-4,R2
    2082:	14 c7 40 04 	STO        R2,$4(SP)
    2083:	33 c3 00 00 	MOV        R12,R6
    2084:	2b c3 00 00 	MOV        R12,R5
    2085:	14 87 40 01 	LOD        1(SP),R2
    2086:	28 84 80 00 	ADD        R2,R5
    2087:	1b c2 c0 00 	MOV        R11,R3
    2088:	14 86 ff fc 	LOD        -4(R11),R2
    2089:	24 86 ff fd 	LOD        -3(R11),R4
    208a:	44 86 ff ff 	LOD        -1(R11),R8
    208b:	10 05 00 00 	SUB        R4,R2
    208c:	4b c1 00 00 	MOV        R4,R9
    208d:	48 86 00 00 	ADD        R8,R9
    208e:	49 c0 00 01 	ASR        $1,R9
    208f:	3c 86 ff fe 	LOD        -2(R11),R7
    2090:	38 06 40 00 	SUB        R9,R7
    2091:	14 c7 00 00 	STO        R2,(R12)
    2092:	10 85 c0 00 	ADD        R7,R2
    2093:	10 80 00 02 	ADD        $2,R2
    2094:	11 c0 00 02 	ASR        $2,R2
    2095:	10 85 00 00 	ADD        R4,R2
    2096:	14 c5 40 00 	STO        R2,(R5)
    2097:	14 87 40 02 	LOD        2(SP),R2
    2098:	14 00 00 03 	CMP        $3,R2
    2099:	78 88 00 1b 	BLT        @0x000020b5	// 20b5 <singlelift+0x55>
    209a:	54 87 40 04 	LOD        4(SP),R10
    209b:	50 86 c0 00 	ADD        R11,R10
    209c:	30 84 40 00 	ADD        R1,R6
    209d:	28 84 40 00 	ADD        R1,R5
    209e:	4c 84 c0 01 	LOD        1(R3),R9
    209f:	23 c2 40 00 	MOV        R9,R4
    20a0:	20 86 00 00 	ADD        R8,R4
    20a1:	21 c0 00 01 	ASR        $1,R4
    20a2:	14 84 c0 00 	LOD        (R3),R2
    20a3:	10 05 00 00 	SUB        R4,R2
    20a4:	3c c5 80 00 	STO        R7,(R6)
    20a5:	23 c0 80 00 	MOV        R2,R4
    20a6:	20 85 c0 00 	ADD        R7,R4
    20a7:	20 80 00 02 	ADD        $2,R4
    20a8:	21 c0 00 02 	ASR        $2,R4
    20a9:	20 86 00 00 	ADD        R8,R4
    20aa:	24 c5 40 00 	STO        R4,(R5)
    20ab:	18 80 00 02 	ADD        $2,R3
    20ac:	3b c0 80 00 	MOV        R2,R7
    20ad:	43 c2 40 00 	MOV        R9,R8
    20ae:	1c 06 80 00 	CMP        R10,R3
    20af:	78 9b ff ec 	BNZ        @0x0000209c	// 209c <singlelift+0x3c>
    20b0:	34 87 40 00 	LOD        (SP),R6
    20b1:	2b c1 80 00 	MOV        R6,R5
    20b2:	1c 87 40 01 	LOD        1(SP),R3
    20b3:	28 84 c0 00 	ADD        R3,R5
    20b4:	78 80 00 02 	BRA        @0x000020b7	// 20b7 <singlelift+0x57>
    20b5:	4b c2 00 00 	MOV        R8,R9
    20b6:	13 c1 c0 00 	MOV        R7,R2
    20b7:	30 84 40 00 	ADD        R1,R6
    20b8:	14 c5 80 00 	STO        R2,(R6)
    20b9:	28 84 40 00 	ADD        R1,R5
    20ba:	10 80 00 01 	ADD        $1,R2
    20bb:	11 c0 00 03 	ASR        $3,R2
    20bc:	10 86 40 00 	ADD        R9,R2
    20bd:	14 c5 40 00 	STO        R2,(R5)
    20be:	60 80 00 01 	ADD        $1,R12
    20bf:	2c 87 40 00 	LOD        (SP),R5
    20c0:	28 80 00 01 	ADD        $1,R5
    20c1:	2c c7 40 00 	STO        R5,(SP)
    20c2:	58 84 40 00 	ADD        R1,R11
    20c3:	14 87 40 03 	LOD        3(SP),R2
    20c4:	64 04 80 00 	CMP        R2,R12
    20c5:	78 9b ff bd 	BNZ        @0x00002083	// 2083 <singlelift+0x23>
    20c6:	2c 87 40 05 	LOD        5(SP),R5
    20c7:	34 87 40 06 	LOD        6(SP),R6
    20c8:	3c 87 40 07 	LOD        7(SP),R7
    20c9:	44 87 40 08 	LOD        8(SP),R8
    20ca:	4c 87 40 09 	LOD        9(SP),R9
    20cb:	54 87 40 0a 	LOD        10(SP),R10
    20cc:	5c 87 40 0b 	LOD        11(SP),R11
    20cd:	64 87 40 0c 	LOD        12(SP),R12
    20ce:	68 80 00 0d 	ADD        $13,SP
    20cf:	7b c0 00 00 	RTN        
    20d0:	7b c0 00 00 	RTN        

000020d1 <ilift>:
    20d1:	14 00 00 01 	CMP        $1,R2
    20d2:	78 88 00 7b 	BLT        @0x0000214e	// 214e <ilift+0x7d>
    20d3:	68 00 00 0f 	SUB        $15,SP
    20d4:	2c c7 40 07 	STO        R5,$7(SP)
    20d5:	34 c7 40 08 	STO        R6,$8(SP)
    20d6:	3c c7 40 09 	STO        R7,$9(SP)
    20d7:	44 c7 40 0a 	STO        R8,$10(SP)
    20d8:	4c c7 40 0b 	STO        R9,$11(SP)
    20d9:	54 c7 40 0c 	STO        R10,$12(SP)
    20da:	5c c7 40 0d 	STO        R11,$13(SP)
    20db:	64 c7 40 0e 	STO        R12,$14(SP)
    20dc:	33 c0 80 00 	MOV        R2,R6
    20dd:	32 04 40 00 	MPY        R1,R6
    20de:	2b c1 80 00 	MOV        R6,R5
    20df:	29 40 00 1f 	LSR        $31,R5
    20e0:	28 85 80 00 	ADD        R6,R5
    20e1:	29 c0 00 01 	ASR        $1,R5
    20e2:	33 c0 80 00 	MOV        R2,R6
    20e3:	31 c0 00 01 	ASR        $1,R6
    20e4:	34 c7 40 04 	STO        R6,$4(SP)
    20e5:	5b c0 c0 00 	MOV        R3,R11
    20e6:	18 84 40 00 	ADD        R1,R3
    20e7:	1c c7 40 00 	STO        R3,(SP)
    20e8:	33 c2 c0 00 	MOV        R11,R6
    20e9:	30 85 40 00 	ADD        R5,R6
    20ea:	34 c7 40 01 	STO        R6,$1(SP)
    20eb:	63 c1 00 00 	MOV        R4,R12
    20ec:	1b 01 ff fe 	LDI        0x7ffffffe,R3	// 7ffffffe <_top_of_heap+0x7f0ffffe>
    20ed:	1a 40 ff fe 
    20ee:	24 87 40 04 	LOD        4(SP),R4
    20ef:	20 84 c0 00 	ADD        R3,R4
    20f0:	1b c1 00 00 	MOV        R4,R3
    20f1:	18 85 00 00 	ADD        R4,R3
    20f2:	53 c3 00 00 	MOV        R12,R10
    20f3:	50 84 c0 00 	ADD        R3,R10
    20f4:	33 c2 c0 00 	MOV        R11,R6
    20f5:	30 84 80 00 	ADD        R2,R6
    20f6:	34 c7 40 05 	STO        R6,$5(SP)
    20f7:	1c 87 40 04 	LOD        4(SP),R3
    20f8:	13 c0 df fe 	MOV        $-2+R3,R2
    20f9:	12 04 40 00 	MPY        R1,R2
    20fa:	28 04 40 00 	SUB        R1,R5
    20fb:	10 85 40 00 	ADD        R5,R2
    20fc:	14 c7 40 06 	STO        R2,$6(SP)
    20fd:	23 c3 00 00 	MOV        R12,R4
    20fe:	2c 87 40 01 	LOD        1(SP),R5
    20ff:	1c 86 c0 00 	LOD        (R11),R3
    2100:	44 87 40 00 	LOD        (SP),R8
    2101:	3c 86 00 00 	LOD        (R8),R7
    2102:	13 c0 c0 00 	MOV        R3,R2
    2103:	10 85 c0 00 	ADD        R7,R2
    2104:	10 80 00 02 	ADD        $2,R2
    2105:	11 c0 00 02 	ASR        $2,R2
    2106:	4c 85 40 00 	LOD        (R5),R9
    2107:	48 04 80 00 	SUB        R2,R9
    2108:	18 86 40 00 	ADD        R9,R3
    2109:	1c c7 00 00 	STO        R3,(R12)
    210a:	4c c7 00 01 	STO        R9,$1(R12)
    210b:	34 87 40 04 	LOD        4(SP),R6
    210c:	34 00 00 03 	CMP        $3,R6
    210d:	78 88 00 1b 	BLT        @0x00002129	// 2129 <ilift+0x58>
    210e:	54 c7 40 02 	STO        R10,$2(SP)
    210f:	78 80 00 01 	BRA        @0x00002111	// 2111 <ilift+0x40>
    2110:	4b c0 c0 00 	MOV        R3,R9
    2111:	20 80 00 02 	ADD        $2,R4
    2112:	40 84 40 00 	ADD        R1,R8
    2113:	28 84 40 00 	ADD        R1,R5
    2114:	34 86 00 00 	LOD        (R8),R6
    2115:	13 c1 80 00 	MOV        R6,R2
    2116:	10 85 c0 00 	ADD        R7,R2
    2117:	10 80 00 02 	ADD        $2,R2
    2118:	11 c0 00 02 	ASR        $2,R2
    2119:	1c 85 40 00 	LOD        (R5),R3
    211a:	18 04 80 00 	SUB        R2,R3
    211b:	13 c0 c0 00 	MOV        R3,R2
    211c:	10 86 40 00 	ADD        R9,R2
    211d:	11 c0 00 01 	ASR        $1,R2
    211e:	10 85 c0 00 	ADD        R7,R2
    211f:	14 c5 00 00 	STO        R2,(R4)
    2120:	1c c5 00 01 	STO        R3,$1(R4)
    2121:	3b c1 80 00 	MOV        R6,R7
    2122:	24 06 80 00 	CMP        R10,R4
    2123:	78 9b ff ec 	BNZ        @0x00002110	// 2110 <ilift+0x3f>
    2124:	2c 87 40 06 	LOD        6(SP),R5
    2125:	14 87 40 00 	LOD        (SP),R2
    2126:	28 84 80 00 	ADD        R2,R5
    2127:	4c c7 40 03 	STO        R9,$3(SP)
    2128:	78 80 00 02 	BRA        @0x0000212b	// 212b <ilift+0x5a>
    2129:	33 c1 c0 00 	MOV        R7,R6
    212a:	64 c7 40 02 	STO        R12,$2(SP)
    212b:	28 84 40 00 	ADD        R1,R5
    212c:	13 c1 80 01 	MOV        $1+R6,R2
    212d:	11 c0 00 03 	ASR        $3,R2
    212e:	1c 85 40 00 	LOD        (R5),R3
    212f:	18 04 80 00 	SUB        R2,R3
    2130:	13 c0 c0 00 	MOV        R3,R2
    2131:	2c 87 40 03 	LOD        3(SP),R5
    2132:	10 85 40 00 	ADD        R5,R2
    2133:	11 c0 00 01 	ASR        $1,R2
    2134:	10 85 80 00 	ADD        R6,R2
    2135:	34 87 40 02 	LOD        2(SP),R6
    2136:	14 c5 80 02 	STO        R2,$2(R6)
    2137:	1c c5 80 03 	STO        R3,$3(R6)
    2138:	58 80 00 01 	ADD        $1,R11
    2139:	34 87 40 00 	LOD        (SP),R6
    213a:	30 80 00 01 	ADD        $1,R6
    213b:	34 c7 40 00 	STO        R6,(SP)
    213c:	14 87 40 01 	LOD        1(SP),R2
    213d:	10 80 00 01 	ADD        $1,R2
    213e:	14 c7 40 01 	STO        R2,$1(SP)
    213f:	60 84 40 00 	ADD        R1,R12
    2140:	50 84 40 00 	ADD        R1,R10
    2141:	1c 87 40 05 	LOD        5(SP),R3
    2142:	1c 06 c0 00 	CMP        R11,R3
    2143:	78 9b ff b9 	BNZ        @0x000020fd	// 20fd <ilift+0x2c>
    2144:	2c 87 40 07 	LOD        7(SP),R5
    2145:	34 87 40 08 	LOD        8(SP),R6
    2146:	3c 87 40 09 	LOD        9(SP),R7
    2147:	44 87 40 0a 	LOD        10(SP),R8
    2148:	4c 87 40 0b 	LOD        11(SP),R9
    2149:	54 87 40 0c 	LOD        12(SP),R10
    214a:	5c 87 40 0d 	LOD        13(SP),R11
    214b:	64 87 40 0e 	LOD        14(SP),R12
    214c:	68 80 00 0f 	ADD        $15,SP
    214d:	7b c0 00 00 	RTN        
    214e:	7b c0 00 00 	RTN        

0000214f <lifting>:
    214f:	68 00 00 0e 	SUB        $14,SP
    2150:	04 c7 40 05 	STO        R0,$5(SP)
    2151:	2c c7 40 06 	STO        R5,$6(SP)
    2152:	34 c7 40 07 	STO        R6,$7(SP)
    2153:	3c c7 40 08 	STO        R7,$8(SP)
    2154:	44 c7 40 09 	STO        R8,$9(SP)
    2155:	4c c7 40 0a 	STO        R9,$10(SP)
    2156:	54 c7 40 0b 	STO        R10,$11(SP)
    2157:	5c c7 40 0c 	STO        R11,$12(SP)
    2158:	64 c7 40 0d 	STO        R12,$13(SP)
    2159:	33 c0 40 00 	MOV        R1,R6
    215a:	14 c7 40 00 	STO        R2,(SP)
    215b:	63 c0 c0 00 	MOV        R3,R12
    215c:	24 c7 40 01 	STO        R4,$1(SP)
    215d:	5b c3 40 02 	MOV        $2+SP,R11
    215e:	53 c2 c0 00 	MOV        R11,R10
    215f:	43 c0 c0 00 	MOV        R3,R8
    2160:	3b c0 80 00 	MOV        R2,R7
    2161:	2b c0 40 00 	MOV        R1,R5
    2162:	4d 80 00 01 	LDI        $1,R9
    2163:	78 80 00 04 	BRA        @0x00002168	// 2168 <lifting+0x19>
    2164:	38 84 40 00 	ADD        R1,R7
    2165:	40 84 40 00 	ADD        R1,R8
    2166:	48 80 00 01 	ADD        $1,R9
    2167:	50 80 00 01 	ADD        $1,R10
    2168:	23 c2 00 00 	MOV        R8,R4
    2169:	1b c1 c0 00 	MOV        R7,R3
    216a:	13 c1 40 00 	MOV        R5,R2
    216b:	0b c1 80 00 	MOV        R6,R1
    216c:	03 c3 c0 01 	JSR        0x00002060	// 2060 <singlelift>
    216d:	78 83 fe f2 
    216e:	23 c1 c0 00 	MOV        R7,R4
    216f:	1b c2 00 00 	MOV        R8,R3
    2170:	13 c1 40 00 	MOV        R5,R2
    2171:	0b c1 80 00 	MOV        R6,R1
    2172:	03 c3 c0 01 	JSR        0x00002060	// 2060 <singlelift>
    2173:	78 83 fe ec 
    2174:	13 c1 80 00 	MOV        R6,R2
    2175:	12 05 40 00 	MPY        R5,R2
    2176:	0b c0 80 00 	MOV        R2,R1
    2177:	09 40 00 1f 	LSR        $31,R1
    2178:	08 84 80 00 	ADD        R2,R1
    2179:	09 c0 00 01 	ASR        $1,R1
    217a:	13 c1 40 00 	MOV        R5,R2
    217b:	11 40 00 1f 	LSR        $31,R2
    217c:	10 85 40 00 	ADD        R5,R2
    217d:	11 c0 00 01 	ASR        $1,R2
    217e:	08 84 80 00 	ADD        R2,R1
    217f:	4c 00 00 01 	CMP        $1,R9
    2180:	78 90 00 24 	BZ         @0x000021a5	// 21a5 <lifting+0x56>
    2181:	14 86 bf ff 	LOD        -1(R10),R2
    2182:	10 84 40 00 	ADD        R1,R2
    2183:	14 c6 80 00 	STO        R2,(R10)
    2184:	29 c0 00 01 	ASR        $1,R5
    2185:	4c 00 00 03 	CMP        $3,R9
    2186:	78 9b ff dd 	BNZ        @0x00002164	// 2164 <lifting+0x15>
    2187:	14 87 40 01 	LOD        1(SP),R2
    2188:	0c 84 80 00 	LOD        (R2),R1
    2189:	28 85 40 00 	ADD        R5,R5
    218a:	4b c3 40 00 	MOV        SP,R9
    218b:	54 87 40 00 	LOD        (SP),R10
    218c:	0c 00 00 00 	CMP        $0,R1
    218d:	78 90 00 01 	BZ         @0x0000218f	// 218f <lifting+0x40>
    218e:	78 80 00 26 	BRA        @0x000021b5	// 21b5 <lifting+0x66>
    218f:	0c 86 c0 01 	LOD        1(R11),R1
    2190:	43 c2 80 00 	MOV        R10,R8
    2191:	40 84 40 00 	ADD        R1,R8
    2192:	3b c3 00 00 	MOV        R12,R7
    2193:	38 84 40 00 	ADD        R1,R7
    2194:	23 c1 c0 00 	MOV        R7,R4
    2195:	1b c2 00 00 	MOV        R8,R3
    2196:	13 c1 40 00 	MOV        R5,R2
    2197:	0b c1 80 00 	MOV        R6,R1
    2198:	03 c3 c0 01 	JSR        0x000020d1	// 20d1 <ilift>
    2199:	78 83 ff 37 
    219a:	23 c2 00 00 	MOV        R8,R4
    219b:	1b c1 c0 00 	MOV        R7,R3
    219c:	13 c1 40 00 	MOV        R5,R2
    219d:	0b c1 80 00 	MOV        R6,R1
    219e:	03 c3 c0 01 	JSR        0x000020d1	// 20d1 <ilift>
    219f:	78 83 ff 31 
    21a0:	28 85 40 00 	ADD        R5,R5
    21a1:	58 83 ff ff 	ADD        $-1,R11
    21a2:	4c 06 c0 00 	CMP        R11,R9
    21a3:	78 9b ff eb 	BNZ        @0x0000218f	// 218f <lifting+0x40>
    21a4:	78 80 00 03 	BRA        @0x000021a8	// 21a8 <lifting+0x59>
    21a5:	0c c6 80 00 	STO        R1,(R10)
    21a6:	29 c0 00 01 	ASR        $1,R5
    21a7:	78 83 ff bc 	BRA        @0x00002164	// 2164 <lifting+0x15>
    21a8:	23 c3 00 00 	MOV        R12,R4
    21a9:	1c 87 40 00 	LOD        (SP),R3
    21aa:	13 c1 40 00 	MOV        R5,R2
    21ab:	0b c1 80 00 	MOV        R6,R1
    21ac:	03 c3 c0 01 	JSR        0x000020d1	// 20d1 <ilift>
    21ad:	78 83 ff 23 
    21ae:	24 87 40 00 	LOD        (SP),R4
    21af:	1b c3 00 00 	MOV        R12,R3
    21b0:	13 c1 40 00 	MOV        R5,R2
    21b1:	0b c1 80 00 	MOV        R6,R1
    21b2:	03 c3 c0 01 	JSR        0x000020d1	// 20d1 <ilift>
    21b3:	78 83 ff 1d 
    21b4:	78 80 00 00 	BRA        @0x000021b5	// 21b5 <lifting+0x66>
    21b5:	04 87 40 05 	LOD        5(SP),R0
    21b6:	2c 87 40 06 	LOD        6(SP),R5
    21b7:	34 87 40 07 	LOD        7(SP),R6
    21b8:	3c 87 40 08 	LOD        8(SP),R7
    21b9:	44 87 40 09 	LOD        9(SP),R8
    21ba:	4c 87 40 0a 	LOD        10(SP),R9
    21bb:	54 87 40 0b 	LOD        11(SP),R10
    21bc:	5c 87 40 0c 	LOD        12(SP),R11
    21bd:	64 87 40 0d 	LOD        13(SP),R12
    21be:	68 80 00 0e 	ADD        $14,SP
    21bf:	7b c0 00 00 	RTN        

000021c0 <yuv>:
    21c0:	68 00 00 05 	SUB        $5,SP
    21c1:	2c c7 40 00 	STO        R5,(SP)
    21c2:	34 c7 40 01 	STO        R6,$1(SP)
    21c3:	3c c7 40 02 	STO        R7,$2(SP)
    21c4:	44 c7 40 03 	STO        R8,$3(SP)
    21c5:	4c c7 40 04 	STO        R9,$4(SP)
    21c6:	14 84 40 04 	LOD        4(R1),R2
    21c7:	24 84 40 05 	LOD        5(R1),R4
    21c8:	1c 84 40 06 	LOD        6(R1),R3
    21c9:	34 84 40 02 	LOD        2(R1),R6
    21ca:	3c 84 40 03 	LOD        3(R1),R7
    21cb:	2c 84 40 01 	LOD        1(R1),R5
    21cc:	0c 84 40 00 	LOD        (R1),R1
    21cd:	0a 04 40 00 	MPY        R1,R1
    21ce:	78 90 00 19 	BZ         @0x000021e8	// 21e8 <yuv+0x28>
    21cf:	43 c0 80 00 	MOV        R2,R8
    21d0:	40 84 40 00 	ADD        R1,R8
    21d1:	0c 85 00 00 	LOD        (R4),R1
    21d2:	08 84 40 00 	ADD        R1,R1
    21d3:	4c 84 80 00 	LOD        (R2),R9
    21d4:	08 86 40 00 	ADD        R9,R1
    21d5:	4c 84 c0 00 	LOD        (R3),R9
    21d6:	08 86 40 00 	ADD        R9,R1
    21d7:	09 c0 00 02 	ASR        $2,R1
    21d8:	0c c5 40 00 	STO        R1,(R5)
    21d9:	0c 84 c0 00 	LOD        (R3),R1
    21da:	4c 85 00 00 	LOD        (R4),R9
    21db:	08 06 40 00 	SUB        R9,R1
    21dc:	0c c5 80 00 	STO        R1,(R6)
    21dd:	0c 84 80 00 	LOD        (R2),R1
    21de:	4c 85 00 00 	LOD        (R4),R9
    21df:	08 06 40 00 	SUB        R9,R1
    21e0:	0c c5 c0 00 	STO        R1,(R7)
    21e1:	28 80 00 01 	ADD        $1,R5
    21e2:	10 80 00 01 	ADD        $1,R2
    21e3:	18 80 00 01 	ADD        $1,R3
    21e4:	30 80 00 01 	ADD        $1,R6
    21e5:	38 80 00 01 	ADD        $1,R7
    21e6:	14 06 00 00 	CMP        R8,R2
    21e7:	78 9b ff e9 	BNZ        @0x000021d1	// 21d1 <yuv+0x11>
    21e8:	2c 87 40 00 	LOD        (SP),R5
    21e9:	34 87 40 01 	LOD        1(SP),R6
    21ea:	3c 87 40 02 	LOD        2(SP),R7
    21eb:	44 87 40 03 	LOD        3(SP),R8
    21ec:	4c 87 40 04 	LOD        4(SP),R9
    21ed:	68 80 00 05 	ADD        $5,SP
    21ee:	7b c0 00 00 	RTN        

000021ef <invyuv>:
    21ef:	68 00 00 05 	SUB        $5,SP
    21f0:	2c c7 40 00 	STO        R5,(SP)
    21f1:	34 c7 40 01 	STO        R6,$1(SP)
    21f2:	3c c7 40 02 	STO        R7,$2(SP)
    21f3:	44 c7 40 03 	STO        R8,$3(SP)
    21f4:	4c c7 40 04 	STO        R9,$4(SP)
    21f5:	1c 84 40 04 	LOD        4(R1),R3
    21f6:	24 84 40 05 	LOD        5(R1),R4
    21f7:	44 84 40 06 	LOD        6(R1),R8
    21f8:	2c 84 40 02 	LOD        2(R1),R5
    21f9:	34 84 40 03 	LOD        3(R1),R6
    21fa:	3c 84 40 01 	LOD        1(R1),R7
    21fb:	0c 84 40 00 	LOD        (R1),R1
    21fc:	0a 04 40 00 	MPY        R1,R1
    21fd:	78 90 00 19 	BZ         @0x00002217	// 2217 <invyuv+0x28>
    21fe:	4b c0 c0 00 	MOV        R3,R9
    21ff:	48 84 40 00 	ADD        R1,R9
    2200:	0c 85 40 00 	LOD        (R5),R1
    2201:	14 85 80 00 	LOD        (R6),R2
    2202:	08 84 80 00 	ADD        R2,R1
    2203:	09 c0 00 02 	ASR        $2,R1
    2204:	14 85 c0 00 	LOD        (R7),R2
    2205:	10 04 40 00 	SUB        R1,R2
    2206:	0b c0 80 00 	MOV        R2,R1
    2207:	14 c5 00 00 	STO        R2,(R4)
    2208:	14 85 80 00 	LOD        (R6),R2
    2209:	10 84 40 00 	ADD        R1,R2
    220a:	14 c4 c0 00 	STO        R2,(R3)
    220b:	0c 85 40 00 	LOD        (R5),R1
    220c:	14 85 00 00 	LOD        (R4),R2
    220d:	08 84 80 00 	ADD        R2,R1
    220e:	0c c6 00 00 	STO        R1,(R8)
    220f:	38 80 00 01 	ADD        $1,R7
    2210:	18 80 00 01 	ADD        $1,R3
    2211:	20 80 00 01 	ADD        $1,R4
    2212:	40 80 00 01 	ADD        $1,R8
    2213:	28 80 00 01 	ADD        $1,R5
    2214:	30 80 00 01 	ADD        $1,R6
    2215:	1c 06 40 00 	CMP        R9,R3
    2216:	78 9b ff e9 	BNZ        @0x00002200	// 2200 <invyuv+0x11>
    2217:	2c 87 40 00 	LOD        (SP),R5
    2218:	34 87 40 01 	LOD        1(SP),R6
    2219:	3c 87 40 02 	LOD        2(SP),R7
    221a:	44 87 40 03 	LOD        3(SP),R8
    221b:	4c 87 40 04 	LOD        4(SP),R9
    221c:	68 80 00 05 	ADD        $5,SP
    221d:	7b c0 00 00 	RTN        

0000221e <rd_dwt_wr>:
    221e:	68 00 00 11 	SUB        $17,SP
    221f:	04 c7 40 08 	STO        R0,$8(SP)
    2220:	2c c7 40 09 	STO        R5,$9(SP)
    2221:	34 c7 40 0a 	STO        R6,$10(SP)
    2222:	3c c7 40 0b 	STO        R7,$11(SP)
    2223:	44 c7 40 0c 	STO        R8,$12(SP)
    2224:	4c c7 40 0d 	STO        R9,$13(SP)
    2225:	54 c7 40 0e 	STO        R10,$14(SP)
    2226:	5c c7 40 0f 	STO        R11,$15(SP)
    2227:	64 c7 40 10 	STO        R12,$16(SP)
    2228:	0d 83 00 00 	LDI        $196608,R1
    2229:	03 c3 c0 02 	MOV        0x0000222c,R0	// 222c <rd_dwt_wr+0xe>
    222a:	7c 87 c0 00 	LJMP       @0x00002058	// 2058 <malloc>
    222b:	00 00 20 58 
    222c:	33 c0 40 00 	MOV        R1,R6
    222d:	0d 82 00 00 	LDI        $131072,R1
    222e:	03 c3 c0 02 	MOV        0x00002231,R0	// 2231 <rd_dwt_wr+0x13>
    222f:	7c 87 c0 00 	LJMP       @0x00002058	// 2058 <malloc>
    2230:	00 00 20 58 
    2231:	4b c0 40 00 	MOV        R1,R9
    2232:	0d 82 00 00 	LDI        $131072,R1
    2233:	03 c3 c0 02 	MOV        0x00002236,R0	// 2236 <rd_dwt_wr+0x18>
    2234:	7c 87 c0 00 	LJMP       @0x00002058	// 2058 <malloc>
    2235:	00 00 20 58 
    2236:	43 c0 40 00 	MOV        R1,R8
    2237:	0d 82 00 00 	LDI        $131072,R1
    2238:	03 c3 c0 02 	MOV        0x0000223b,R0	// 223b <rd_dwt_wr+0x1d>
    2239:	7c 87 c0 00 	LJMP       @0x00002058	// 2058 <malloc>
    223a:	00 00 20 58 
    223b:	3b c0 40 00 	MOV        R1,R7
    223c:	03 01 71 00 	LDI        0x008efff1,R0	// 8efff1 <_top_of_stack+0x8ebff2>
    223d:	02 40 ff f1 
    223e:	34 c4 00 00 	STO        R6,(R0)
    223f:	03 01 71 00 	LDI        0x008efff2,R0	// 8efff2 <_top_of_stack+0x8ebff3>
    2240:	02 40 ff f2 
    2241:	4c c4 00 00 	STO        R9,(R0)
    2242:	03 01 71 00 	LDI        0x008efff3,R0	// 8efff3 <_top_of_stack+0x8ebff4>
    2243:	02 40 ff f3 
    2244:	44 c4 00 00 	STO        R8,(R0)
    2245:	03 01 71 00 	LDI        0x008efff4,R0	// 8efff4 <_top_of_stack+0x8ebff5>
    2246:	02 40 ff f4 
    2247:	0c c4 00 00 	STO        R1,(R0)
    2248:	25 80 01 00 	LDI        $256,R4
    2249:	5b 00 40 02 	LDI        0x40024002,R11	// 40024002 <_top_of_heap+0x3f124002>
    224a:	5a 40 40 02 
    224b:	5c c0 01 06 	STO        R11,($262)
    224c:	1b c0 40 00 	MOV        R1,R3
    224d:	13 c2 00 00 	MOV        R8,R2
    224e:	0b c2 40 00 	MOV        R9,R1
    224f:	24 c7 40 00 	STO        R4,(SP)
    2250:	03 c3 c0 02 	MOV        0x00002253,R0	// 2253 <rd_dwt_wr+0x35>
    2251:	7c 87 c0 00 	LJMP       @0x00002025	// 2025 <zip_read_image>
    2252:	00 00 20 25 
    2253:	58 83 bf fe 	ADD        $-16386,R11
    2254:	5c c0 01 06 	STO        R11,($262)
    2255:	03 03 ff fe 	BREV       $-2,R0
    2256:	04 c0 01 04 	STO        R0,($260)
    2257:	03 01 71 00 	LDI        0x008efff7,R0	// 8efff7 <_top_of_stack+0x8ebff8>
    2258:	02 40 ff f7 
    2259:	04 84 00 00 	LOD        (R0),R0
    225a:	5b c1 c0 00 	MOV        R7,R11
    225b:	63 c2 00 00 	MOV        R8,R12
    225c:	13 c2 40 00 	MOV        R9,R2
    225d:	04 00 00 00 	CMP        $0,R0
    225e:	24 87 40 00 	LOD        (SP),R4
    225f:	78 98 00 15 	BNZ        @0x00002275	// 2275 <rd_dwt_wr+0x57>
    2260:	63 c1 80 00 	MOV        R6,R12
    2261:	60 81 00 00 	ADD        $65536,R12
    2262:	03 c1 00 00 	MOV        R4,R0
    2263:	00 81 ff 00 	ADD        $130816,R0
    2264:	5b c1 80 00 	MOV        R6,R11
    2265:	58 84 00 00 	ADD        R0,R11
    2266:	24 c7 40 01 	STO        R4,$1(SP)
    2267:	34 c7 40 02 	STO        R6,$2(SP)
    2268:	64 c7 40 03 	STO        R12,$3(SP)
    2269:	5c c7 40 04 	STO        R11,$4(SP)
    226a:	4c c7 40 05 	STO        R9,$5(SP)
    226b:	44 c7 40 06 	STO        R8,$6(SP)
    226c:	3c c7 40 07 	STO        R7,$7(SP)
    226d:	0b c3 40 01 	MOV        $1+SP,R1
    226e:	03 c3 c0 02 	MOV        0x00002271,R0	// 2271 <rd_dwt_wr+0x53>
    226f:	7c 87 c0 00 	LJMP       @0x000021c0	// 21c0 <yuv>
    2270:	00 00 21 c0 
    2271:	2b c2 c0 00 	MOV        R11,R5
    2272:	53 c3 00 00 	MOV        R12,R10
    2273:	13 c1 80 00 	MOV        R6,R2
    2274:	78 80 00 00 	BRA        @0x00002275	// 2275 <rd_dwt_wr+0x57>
    2275:	23 01 71 00 	LDI        0x008efff6,R4	// 8efff6 <_top_of_stack+0x8ebff7>
    2276:	22 40 ff f6 
    2277:	1b c2 40 00 	MOV        R9,R3
    2278:	18 81 00 00 	ADD        $65536,R3
    2279:	0d 80 01 00 	LDI        $256,R1
    227a:	03 c3 c0 02 	MOV        0x0000227d,R0	// 227d <rd_dwt_wr+0x5f>
    227b:	7c 87 c0 00 	LJMP       @0x0000214f	// 214f <lifting>
    227c:	00 00 21 4f 
    227d:	23 01 71 00 	LDI        0x008efff6,R4	// 8efff6 <_top_of_stack+0x8ebff7>
    227e:	22 40 ff f6 
    227f:	1b c2 00 00 	MOV        R8,R3
    2280:	18 81 00 00 	ADD        $65536,R3
    2281:	13 c3 00 00 	MOV        R12,R2
    2282:	0d 80 01 00 	LDI        $256,R1
    2283:	03 c3 c0 02 	MOV        0x00002286,R0	// 2286 <rd_dwt_wr+0x68>
    2284:	7c 87 c0 00 	LJMP       @0x0000214f	// 214f <lifting>
    2285:	00 00 21 4f 
    2286:	23 01 71 00 	LDI        0x008efff6,R4	// 8efff6 <_top_of_stack+0x8ebff7>
    2287:	22 40 ff f6 
    2288:	1b c1 c0 00 	MOV        R7,R3
    2289:	18 81 00 00 	ADD        $65536,R3
    228a:	13 c2 c0 00 	MOV        R11,R2
    228b:	0d 80 01 00 	LDI        $256,R1
    228c:	03 c3 c0 02 	MOV        0x0000228f,R0	// 228f <rd_dwt_wr+0x71>
    228d:	7c 87 c0 00 	LJMP       @0x0000214f	// 214f <lifting>
    228e:	00 00 21 4f 
    228f:	0c 80 01 04 	LOD        ($260),R1
    2290:	03 03 ff fe 	BREV       $-2,R0
    2291:	00 04 40 00 	SUB        R1,R0
    2292:	0b 01 71 00 	LDI        0x008efff5,R1	// 8efff5 <_top_of_stack+0x8ebff6>
    2293:	0a 40 ff f5 
    2294:	04 c4 40 00 	STO        R0,(R1)
    2295:	03 01 71 00 	LDI        0x008efff7,R0	// 8efff7 <_top_of_stack+0x8ebff8>
    2296:	02 40 ff f7 
    2297:	04 84 00 00 	LOD        (R0),R0
    2298:	04 00 00 00 	CMP        $0,R0
    2299:	2b d9 c0 00 	MOV.NZ     R7,R5
    229a:	53 da 00 00 	MOV.NZ     R8,R10
    229b:	13 da 40 00 	MOV.NZ     R9,R2
    229c:	13 d1 80 00 	MOV.Z      R6,R2
    229d:	05 80 00 00 	CLR        R0
    229e:	04 c0 01 04 	STO        R0,($260)
    229f:	05 81 00 01 	LDI        $65537,R0
    22a0:	04 c0 01 06 	STO        R0,($262)
    22a1:	23 c0 80 00 	MOV        R2,R4
    22a2:	20 81 00 00 	ADD        $65536,R4
    22a3:	1b 00 ff 00 	BREV       $65280,R3
    22a4:	0c 80 01 0b 	LOD        ($267),R1
    22a5:	0c 00 00 00 	CMP        $0,R1
    22a6:	78 9b ff fd 	BNZ        @0x000022a4	// 22a4 <rd_dwt_wr+0x86>
    22a7:	04 84 80 00 	LOD        (R2),R0
    22a8:	00 40 00 ff 	AND        $255,R0
    22a9:	0c 80 01 0b 	LOD        ($267),R1
    22aa:	0c 00 00 00 	CMP        $0,R1
    22ab:	78 9b ff fd 	BNZ        @0x000022a9	// 22a9 <rd_dwt_wr+0x8b>
    22ac:	04 c0 01 0b 	STO        R0,($267)
    22ad:	04 84 80 00 	LOD        (R2),R0
    22ae:	00 40 ff 00 	AND        $65280,R0
    22af:	01 c0 00 08 	ASR        $8,R0
    22b0:	0c 80 01 0b 	LOD        ($267),R1
    22b1:	0c 00 00 00 	CMP        $0,R1
    22b2:	78 9b ff fd 	BNZ        @0x000022b0	// 22b0 <rd_dwt_wr+0x92>
    22b3:	04 c0 01 0b 	STO        R0,($267)
    22b4:	0c 80 01 0b 	LOD        ($267),R1
    22b5:	0c 00 00 00 	CMP        $0,R1
    22b6:	78 9b ff fd 	BNZ        @0x000022b4	// 22b4 <rd_dwt_wr+0x96>
    22b7:	04 84 80 00 	LOD        (R2),R0
    22b8:	00 44 c0 00 	AND        R3,R0
    22b9:	01 c0 00 10 	ASR        $16,R0
    22ba:	0c 80 01 0b 	LOD        ($267),R1
    22bb:	0c 00 00 00 	CMP        $0,R1
    22bc:	78 9b ff fd 	BNZ        @0x000022ba	// 22ba <rd_dwt_wr+0x9c>
    22bd:	04 c0 01 0b 	STO        R0,($267)
    22be:	04 84 80 00 	LOD        (R2),R0
    22bf:	01 c0 00 18 	ASR        $24,R0
    22c0:	0c 80 01 0b 	LOD        ($267),R1
    22c1:	0c 00 00 00 	CMP        $0,R1
    22c2:	78 9b ff fd 	BNZ        @0x000022c0	// 22c0 <rd_dwt_wr+0xa2>
    22c3:	04 c0 01 0b 	STO        R0,($267)
    22c4:	10 80 00 01 	ADD        $1,R2
    22c5:	14 05 00 00 	CMP        R4,R2
    22c6:	78 9b ff dd 	BNZ        @0x000022a4	// 22a4 <rd_dwt_wr+0x86>
    22c7:	05 81 00 00 	LDI        $65536,R0
    22c8:	04 c0 01 06 	STO        R0,($262)
    22c9:	0c c0 01 04 	STO        R1,($260)
    22ca:	05 81 00 01 	LDI        $65537,R0
    22cb:	04 c0 01 06 	STO        R0,($262)
    22cc:	1b c2 80 00 	MOV        R10,R3
    22cd:	18 81 00 00 	ADD        $65536,R3
    22ce:	13 00 ff 00 	BREV       $65280,R2
    22cf:	0c 80 01 0b 	LOD        ($267),R1
    22d0:	0c 00 00 00 	CMP        $0,R1
    22d1:	78 9b ff fd 	BNZ        @0x000022cf	// 22cf <rd_dwt_wr+0xb1>
    22d2:	04 86 80 00 	LOD        (R10),R0
    22d3:	00 40 00 ff 	AND        $255,R0
    22d4:	0c 80 01 0b 	LOD        ($267),R1
    22d5:	0c 00 00 00 	CMP        $0,R1
    22d6:	78 9b ff fd 	BNZ        @0x000022d4	// 22d4 <rd_dwt_wr+0xb6>
    22d7:	04 c0 01 0b 	STO        R0,($267)
    22d8:	24 86 80 00 	LOD        (R10),R4
    22d9:	20 40 ff 00 	AND        $65280,R4
    22da:	21 c0 00 08 	ASR        $8,R4
    22db:	0c 80 01 0b 	LOD        ($267),R1
    22dc:	0c 00 00 00 	CMP        $0,R1
    22dd:	78 9b ff fd 	BNZ        @0x000022db	// 22db <rd_dwt_wr+0xbd>
    22de:	24 c0 01 0b 	STO        R4,($267)
    22df:	0c 80 01 0b 	LOD        ($267),R1
    22e0:	0c 00 00 00 	CMP        $0,R1
    22e1:	78 9b ff fd 	BNZ        @0x000022df	// 22df <rd_dwt_wr+0xc1>
    22e2:	24 86 80 00 	LOD        (R10),R4
    22e3:	20 44 80 00 	AND        R2,R4
    22e4:	21 c0 00 10 	ASR        $16,R4
    22e5:	0c 80 01 0b 	LOD        ($267),R1
    22e6:	0c 00 00 00 	CMP        $0,R1
    22e7:	78 9b ff fd 	BNZ        @0x000022e5	// 22e5 <rd_dwt_wr+0xc7>
    22e8:	24 c0 01 0b 	STO        R4,($267)
    22e9:	04 86 80 00 	LOD        (R10),R0
    22ea:	01 c0 00 18 	ASR        $24,R0
    22eb:	0c 80 01 0b 	LOD        ($267),R1
    22ec:	0c 00 00 00 	CMP        $0,R1
    22ed:	78 9b ff fd 	BNZ        @0x000022eb	// 22eb <rd_dwt_wr+0xcd>
    22ee:	04 c0 01 0b 	STO        R0,($267)
    22ef:	50 80 00 01 	ADD        $1,R10
    22f0:	54 04 c0 00 	CMP        R3,R10
    22f1:	78 9b ff dd 	BNZ        @0x000022cf	// 22cf <rd_dwt_wr+0xb1>
    22f2:	05 81 00 00 	LDI        $65536,R0
    22f3:	04 c0 01 06 	STO        R0,($262)
    22f4:	0c c0 01 04 	STO        R1,($260)
    22f5:	05 81 00 01 	LDI        $65537,R0
    22f6:	04 c0 01 06 	STO        R0,($262)
    22f7:	1b c1 40 00 	MOV        R5,R3
    22f8:	18 81 00 00 	ADD        $65536,R3
    22f9:	13 00 ff 00 	BREV       $65280,R2
    22fa:	0c 80 01 0b 	LOD        ($267),R1
    22fb:	0c 00 00 00 	CMP        $0,R1
    22fc:	78 9b ff fd 	BNZ        @0x000022fa	// 22fa <rd_dwt_wr+0xdc>
    22fd:	04 85 40 00 	LOD        (R5),R0
    22fe:	00 40 00 ff 	AND        $255,R0
    22ff:	0c 80 01 0b 	LOD        ($267),R1
    2300:	0c 00 00 00 	CMP        $0,R1
    2301:	78 9b ff fd 	BNZ        @0x000022ff	// 22ff <rd_dwt_wr+0xe1>
    2302:	04 c0 01 0b 	STO        R0,($267)
    2303:	24 85 40 00 	LOD        (R5),R4
    2304:	20 40 ff 00 	AND        $65280,R4
    2305:	21 c0 00 08 	ASR        $8,R4
    2306:	0c 80 01 0b 	LOD        ($267),R1
    2307:	0c 00 00 00 	CMP        $0,R1
    2308:	78 9b ff fd 	BNZ        @0x00002306	// 2306 <rd_dwt_wr+0xe8>
    2309:	24 c0 01 0b 	STO        R4,($267)
    230a:	0c 80 01 0b 	LOD        ($267),R1
    230b:	0c 00 00 00 	CMP        $0,R1
    230c:	78 9b ff fd 	BNZ        @0x0000230a	// 230a <rd_dwt_wr+0xec>
    230d:	24 85 40 00 	LOD        (R5),R4
    230e:	20 44 80 00 	AND        R2,R4
    230f:	21 c0 00 10 	ASR        $16,R4
    2310:	0c 80 01 0b 	LOD        ($267),R1
    2311:	0c 00 00 00 	CMP        $0,R1
    2312:	78 9b ff fd 	BNZ        @0x00002310	// 2310 <rd_dwt_wr+0xf2>
    2313:	24 c0 01 0b 	STO        R4,($267)
    2314:	04 85 40 00 	LOD        (R5),R0
    2315:	01 c0 00 18 	ASR        $24,R0
    2316:	0c 80 01 0b 	LOD        ($267),R1
    2317:	0c 00 00 00 	CMP        $0,R1
    2318:	78 9b ff fd 	BNZ        @0x00002316	// 2316 <rd_dwt_wr+0xf8>
    2319:	04 c0 01 0b 	STO        R0,($267)
    231a:	28 80 00 01 	ADD        $1,R5
    231b:	2c 04 c0 00 	CMP        R3,R5
    231c:	78 9b ff dd 	BNZ        @0x000022fa	// 22fa <rd_dwt_wr+0xdc>
    231d:	05 81 00 00 	LDI        $65536,R0
    231e:	04 c0 01 06 	STO        R0,($262)
    231f:	0b c2 40 00 	MOV        R9,R1
    2320:	03 c3 c0 02 	MOV        0x00002323,R0	// 2323 <rd_dwt_wr+0x105>
    2321:	7c 87 c0 00 	LJMP       @0x00002057	// 2057 <free>
    2322:	00 00 20 57 
    2323:	0b c2 00 00 	MOV        R8,R1
    2324:	03 c3 c0 02 	MOV        0x00002327,R0	// 2327 <rd_dwt_wr+0x109>
    2325:	7c 87 c0 00 	LJMP       @0x00002057	// 2057 <free>
    2326:	00 00 20 57 
    2327:	0b c1 c0 00 	MOV        R7,R1
    2328:	03 c3 c0 02 	MOV        0x0000232b,R0	// 232b <rd_dwt_wr+0x10d>
    2329:	7c 87 c0 00 	LJMP       @0x00002057	// 2057 <free>
    232a:	00 00 20 57 
    232b:	0b c1 80 00 	MOV        R6,R1
    232c:	03 c3 c0 02 	MOV        0x0000232f,R0	// 232f <rd_dwt_wr+0x111>
    232d:	7c 87 c0 00 	LJMP       @0x00002057	// 2057 <free>
    232e:	00 00 20 57 
    232f:	04 87 40 08 	LOD        8(SP),R0
    2330:	2c 87 40 09 	LOD        9(SP),R5
    2331:	34 87 40 0a 	LOD        10(SP),R6
    2332:	3c 87 40 0b 	LOD        11(SP),R7
    2333:	44 87 40 0c 	LOD        12(SP),R8
    2334:	4c 87 40 0d 	LOD        13(SP),R9
    2335:	54 87 40 0e 	LOD        14(SP),R10
    2336:	5c 87 40 0f 	LOD        15(SP),R11
    2337:	64 87 40 10 	LOD        16(SP),R12
    2338:	68 80 00 11 	ADD        $17,SP
    2339:	7b c0 00 00 	RTN        

0000233a <zip_write>:
    233a:	68 00 00 01 	SUB        $1,SP
    233b:	2c c7 40 00 	STO        R5,(SP)
    233c:	15 80 00 00 	CLR        R2
    233d:	14 c0 01 04 	STO        R2,($260)
    233e:	15 81 00 01 	LDI        $65537,R2
    233f:	14 c0 01 06 	STO        R2,($262)
    2340:	2b c0 40 00 	MOV        R1,R5
    2341:	28 81 00 00 	ADD        $65536,R5
    2342:	23 00 ff 00 	BREV       $65280,R4
    2343:	14 80 01 0b 	LOD        ($267),R2
    2344:	14 00 00 00 	CMP        $0,R2
    2345:	78 9b ff fd 	BNZ        @0x00002343	// 2343 <zip_write+0x9>
    2346:	1c 84 40 00 	LOD        (R1),R3
    2347:	18 40 00 ff 	AND        $255,R3
    2348:	14 80 01 0b 	LOD        ($267),R2
    2349:	14 00 00 00 	CMP        $0,R2
    234a:	78 9b ff fd 	BNZ        @0x00002348	// 2348 <zip_write+0xe>
    234b:	1c c0 01 0b 	STO        R3,($267)
    234c:	1c 84 40 00 	LOD        (R1),R3
    234d:	18 40 ff 00 	AND        $65280,R3
    234e:	19 c0 00 08 	ASR        $8,R3
    234f:	14 80 01 0b 	LOD        ($267),R2
    2350:	14 00 00 00 	CMP        $0,R2
    2351:	78 9b ff fd 	BNZ        @0x0000234f	// 234f <zip_write+0x15>
    2352:	1c c0 01 0b 	STO        R3,($267)
    2353:	14 80 01 0b 	LOD        ($267),R2
    2354:	14 00 00 00 	CMP        $0,R2
    2355:	78 9b ff fd 	BNZ        @0x00002353	// 2353 <zip_write+0x19>
    2356:	1c 84 40 00 	LOD        (R1),R3
    2357:	18 45 00 00 	AND        R4,R3
    2358:	19 c0 00 10 	ASR        $16,R3
    2359:	14 80 01 0b 	LOD        ($267),R2
    235a:	14 00 00 00 	CMP        $0,R2
    235b:	78 9b ff fd 	BNZ        @0x00002359	// 2359 <zip_write+0x1f>
    235c:	1c c0 01 0b 	STO        R3,($267)
    235d:	1c 84 40 00 	LOD        (R1),R3
    235e:	19 c0 00 18 	ASR        $24,R3
    235f:	14 80 01 0b 	LOD        ($267),R2
    2360:	14 00 00 00 	CMP        $0,R2
    2361:	78 9b ff fd 	BNZ        @0x0000235f	// 235f <zip_write+0x25>
    2362:	1c c0 01 0b 	STO        R3,($267)
    2363:	08 80 00 01 	ADD        $1,R1
    2364:	0c 05 40 00 	CMP        R5,R1
    2365:	78 9b ff dd 	BNZ        @0x00002343	// 2343 <zip_write+0x9>
    2366:	0d 81 00 00 	LDI        $65536,R1
    2367:	0c c0 01 06 	STO        R1,($262)
    2368:	2c 87 40 00 	LOD        (SP),R5
    2369:	68 80 00 01 	ADD        $1,SP
    236a:	7b c0 00 00 	RTN        

0000236b <msg1>:
    236b:	00 00 00 44 00 00 00 61 00 00 00 74 00 00 00 61     ...D...a...t...a
    236f:	00 00 00 20 00 00 00 72 00 00 00 64 00 00 00 79     ... ...r...d...y
    2373:	00 00 00 20 00 00 00 20 00 00 00 20 00 00 00 20     ... ... ... ... 
    2377:	00 00 00 20 00 00 00 0d 00 00 00 0a 00 00 00 00     ... ............

0000237b <msg>:
    237b:	00 00 00 48 00 00 00 65 00 00 00 6c 00 00 00 6c     ...H...e...l...l
    237f:	00 00 00 6f 00 00 00 2c 00 00 00 20 00 00 00 77     ...o...,... ...w
    2383:	00 00 00 6f 00 00 00 72 00 00 00 6c 00 00 00 64     ...o...r...l...d
    2387:	00 00 00 21 00 00 00 0d 00 00 00 0a 00 00 00 00     ...!............
