
Memory Configuration

Name             Origin             Length             Attributes
blkram           0x00002000         0x00002000         xw
flash            0x00040000         0x00040000         xr
sdram            0x00800000         0x00800000         xw
*default*        0x00000000         0xffffffff

Linker script and memory map

LOAD obj-zip/h2.o
LOAD obj-zip/pushtozipcpu.o
LOAD obj-zip/clr_sdram.o
LOAD obj-zip/dwt_funcs.o
LOAD obj-zip/pushtorpi2B.o
LOAD obj-zip/my_malloc.o
LOAD obj-zip/test_malloc.o
                0x00003fff                _top_of_stack = ((ORIGIN (blkram) + 0x2000) - 0x1)
                0x00002000                . = 0x2000

.rocode         0x00002000      0x3cf
 *(.start)
 .start         0x00002000        0x4 obj-zip/h2.o
                0x00002000                _start
 *(.text)
 .text          0x00002004       0x55 obj-zip/h2.o
                0x00002004                entry
 .text          0x00002059       0x31 obj-zip/pushtozipcpu.o
                0x00002059                zip_read_image
 .text          0x0000208a        0x9 obj-zip/clr_sdram.o
                0x0000208a                zip_clear_sdram
 .text          0x00002093      0x2ba obj-zip/dwt_funcs.o
                0x00002093                de_interleave
                0x00002112                lower_upper
                0x0000219e                lift_step
                0x00002231                inv_lift_step
                0x000022c2                upper_lower
 .text          0x0000234d       0x2c obj-zip/pushtorpi2B.o
                0x0000234d                zip_write_image
 .text          0x00002379        0x9 obj-zip/my_malloc.o
                0x00002379                free
                0x0000237a                malloc
 .text          0x00002382       0x29 obj-zip/test_malloc.o
                0x00002382                test_malloc
 *(.rodata)
 .rodata        0x000023ab       0x24 obj-zip/h2.o
                0x000023ab                msg1
                0x000023bb                msg
                0x000023cb                XULA_BUSY
                0x000023cc                READY_FOR_XMIT
                0x000023cd                LED_OFF
                0x000023ce                LED_ON
 *(.strings)

.data           0x000023cf        0x1
 *(.data)
 .data          0x000023cf        0x0 obj-zip/h2.o
 .data          0x000023cf        0x0 obj-zip/pushtozipcpu.o
 .data          0x000023cf        0x0 obj-zip/clr_sdram.o
 .data          0x000023cf        0x0 obj-zip/dwt_funcs.o
 .data          0x000023cf        0x0 obj-zip/pushtorpi2B.o
 .data          0x000023cf        0x1 obj-zip/my_malloc.o
                0x000023cf                heap
 .data          0x000023d0        0x0 obj-zip/test_malloc.o
 *(COMMON)
 *(.bss)
 .bss           0x000023d0        0x0 obj-zip/h2.o
 .bss           0x000023d0        0x0 obj-zip/pushtozipcpu.o
 .bss           0x000023d0        0x0 obj-zip/clr_sdram.o
 .bss           0x000023d0        0x0 obj-zip/dwt_funcs.o
 .bss           0x000023d0        0x0 obj-zip/pushtorpi2B.o
 .bss           0x000023d0        0x0 obj-zip/my_malloc.o
 .bss           0x000023d0        0x0 obj-zip/test_malloc.o
                0x00f00000                _top_of_heap = 0xf00000
OUTPUT(h2 elf32-zip)

.comment        0x00000000        0x7
 .comment       0x00000000        0x7 obj-zip/h2.o
                                 0x20 (size before relaxing)
 .comment       0x00000007        0x8 obj-zip/pushtozipcpu.o
 .comment       0x00000007        0x8 obj-zip/clr_sdram.o
 .comment       0x00000007        0x8 obj-zip/dwt_funcs.o
 .comment       0x00000007        0x8 obj-zip/pushtorpi2B.o
 .comment       0x00000007        0x8 obj-zip/my_malloc.o
 .comment       0x00000007        0x8 obj-zip/test_malloc.o
